target datalayout = "e-m:e-p270:32:32-p271:32:32-p272:64:64-i64:64-i128:128-f80:128-n8:16:32:64-S128"
target triple = "x86_64-pc-linux-gnu"

%struct.VariableStatData = type { ptr, ptr, ptr, ptr, i32, i32, i32, i8, i8 }
%struct.Node = type { i32 }
%struct.Expr = type { i32 }
%struct.FormData_pg_statistic = type { i32, i16, i8, float, i32, float, i16, i16, i16, i16, i16, i32, i32, i32, i32, i32, i32, i32, i32, i32, i32 }
%struct.RelOptInfo = type { i32, i32, ptr, double, i8, i8, i8, ptr, ptr, ptr, ptr, ptr, ptr, ptr, ptr, ptr, ptr, i32, i32, i32, i16, i16, ptr, ptr, ptr, ptr, ptr, ptr, ptr, ptr, i32, double, double, ptr, ptr, ptr, i32, i32, i32, i32, i8, ptr, ptr, ptr, ptr, ptr, %struct.QualCost, i32, ptr, i8, i8, ptr, ptr, ptr, ptr, i32, ptr, i8, ptr, ptr, ptr, ptr, ptr, ptr }
%struct.QualCost = type { double, double }
%struct.HeapTupleData = type { i32, %struct.ItemPointerData, i32, ptr }
%struct.ItemPointerData = type { %struct.BlockIdData, i16 }
%struct.BlockIdData = type { i16, i16 }
%struct.HeapTupleHeaderData = type { %union.anon.4, %struct.ItemPointerData, i16, i16, i8, [0 x i8] }
%union.anon.4 = type { %struct.HeapTupleFields }
%struct.HeapTupleFields = type { i32, i32, %union.anon.5 }
%union.anon.5 = type { i32 }
%struct.Var = type { %struct.Expr, i32, i16, i32, i32, i32, ptr, i32, i32, i32, i16, i32 }

; Function Attrs: inlinehint nounwind uwtable
define internal ptr @GETSTRUCT(ptr noundef %0) #1 {
  %2 = alloca ptr, align 8
  store ptr %0, ptr %2, align 8
  %3 = load ptr, ptr %2, align 8
  %4 = getelementptr inbounds nuw %struct.HeapTupleData, ptr %3, i32 0, i32 3
  %5 = load ptr, ptr %4, align 8
  %6 = load ptr, ptr %2, align 8
  %7 = getelementptr inbounds nuw %struct.HeapTupleData, ptr %6, i32 0, i32 3
  %8 = load ptr, ptr %7, align 8
  %9 = getelementptr inbounds nuw %struct.HeapTupleHeaderData, ptr %8, i32 0, i32 4
  %10 = load i8, ptr %9, align 2
  %11 = zext i8 %10 to i32
  %12 = sext i32 %11 to i64
  %13 = getelementptr inbounds i8, ptr %5, i64 %12
  ret ptr %13
}

; Function Attrs: nounwind uwtable
define dso_local double @get_variable_numdistinct(ptr noundef %0, ptr noundef %1) #0 {
  %3 = alloca double, align 8
  %4 = alloca ptr, align 8
  %5 = alloca ptr, align 8
  %6 = alloca double, align 8
  %7 = alloca double, align 8
  %8 = alloca double, align 8
  %9 = alloca ptr, align 8
  %10 = alloca i32, align 4
  store ptr %0, ptr %4, align 8
  store ptr %1, ptr %5, align 8
  call void @llvm.lifetime.start.p0(i64 8, ptr %6) #10
  call void @llvm.lifetime.start.p0(i64 8, ptr %7) #10
  store double 0.000000e+00, ptr %7, align 8
  call void @llvm.lifetime.start.p0(i64 8, ptr %8) #10
  %11 = load ptr, ptr %5, align 8
  store i8 0, ptr %11, align 1
  %12 = load ptr, ptr %4, align 8
  %13 = getelementptr inbounds nuw %struct.VariableStatData, ptr %12, i32 0, i32 2
  %14 = load ptr, ptr %13, align 8
  %15 = icmp ne ptr %14, null
  br i1 %15, label %16, label %29

16:                                               ; preds = %2
  call void @llvm.lifetime.start.p0(i64 8, ptr %9) #10
  %17 = load ptr, ptr %4, align 8
  %18 = getelementptr inbounds nuw %struct.VariableStatData, ptr %17, i32 0, i32 2
  %19 = load ptr, ptr %18, align 8
  %20 = call ptr @GETSTRUCT(ptr noundef %19)
  store ptr %20, ptr %9, align 8
  %21 = load ptr, ptr %9, align 8
  %22 = getelementptr inbounds nuw %struct.FormData_pg_statistic, ptr %21, i32 0, i32 5
  %23 = load float, ptr %22, align 4
  %24 = fpext float %23 to double
  store double %24, ptr %6, align 8
  %25 = load ptr, ptr %9, align 8
  %26 = getelementptr inbounds nuw %struct.FormData_pg_statistic, ptr %25, i32 0, i32 3
  %27 = load float, ptr %26, align 4
  %28 = fpext float %27 to double
  store double %28, ptr %7, align 8
  call void @llvm.lifetime.end.p0(i64 8, ptr %9) #10
  br label %75

29:                                               ; preds = %2
  %30 = load ptr, ptr %4, align 8
  %31 = getelementptr inbounds nuw %struct.VariableStatData, ptr %30, i32 0, i32 4
  %32 = load i32, ptr %31, align 8
  %33 = icmp eq i32 %32, 16
  br i1 %33, label %34, label %35

34:                                               ; preds = %29
  store double 2.000000e+00, ptr %6, align 8
  br label %74

35:                                               ; preds = %29
  %36 = load ptr, ptr %4, align 8
  %37 = getelementptr inbounds nuw %struct.VariableStatData, ptr %36, i32 0, i32 1
  %38 = load ptr, ptr %37, align 8
  %39 = icmp ne ptr %38, null
  br i1 %39, label %40, label %48

40:                                               ; preds = %35
  %41 = load ptr, ptr %4, align 8
  %42 = getelementptr inbounds nuw %struct.VariableStatData, ptr %41, i32 0, i32 1
  %43 = load ptr, ptr %42, align 8
  %44 = getelementptr inbounds nuw %struct.RelOptInfo, ptr %43, i32 0, i32 19
  %45 = load i32, ptr %44, align 8
  %46 = icmp eq i32 %45, 5
  br i1 %46, label %47, label %48

47:                                               ; preds = %40
  store double -1.000000e+00, ptr %6, align 8
  br label %73

48:                                               ; preds = %40, %35
  %49 = load ptr, ptr %4, align 8
  %50 = getelementptr inbounds nuw %struct.VariableStatData, ptr %49, i32 0, i32 0
  %51 = load ptr, ptr %50, align 8
  %52 = icmp ne ptr %51, null
  br i1 %52, label %53, label %71

53:                                               ; preds = %48
  %54 = load ptr, ptr %4, align 8
  %55 = getelementptr inbounds nuw %struct.VariableStatData, ptr %54, i32 0, i32 0
  %56 = load ptr, ptr %55, align 8
  %57 = getelementptr inbounds nuw %struct.Node, ptr %56, i32 0, i32 0
  %58 = load i32, ptr %57, align 4
  %59 = icmp eq i32 %58, 6
  br i1 %59, label %60, label %71

60:                                               ; preds = %53
  %61 = load ptr, ptr %4, align 8
  %62 = getelementptr inbounds nuw %struct.VariableStatData, ptr %61, i32 0, i32 0
  %63 = load ptr, ptr %62, align 8
  %64 = getelementptr inbounds nuw %struct.Var, ptr %63, i32 0, i32 2
  %65 = load i16, ptr %64, align 8
  %66 = sext i16 %65 to i32
  switch i32 %66, label %69 [
    i32 -1, label %67
    i32 -6, label %68
  ]

67:                                               ; preds = %60
  store double -1.000000e+00, ptr %6, align 8
  br label %70

68:                                               ; preds = %60
  store double 1.000000e+00, ptr %6, align 8
  br label %70

69:                                               ; preds = %60
  store double 0.000000e+00, ptr %6, align 8
  br label %70

70:                                               ; preds = %69, %68, %67
  br label %72

71:                                               ; preds = %53, %48
  store double 0.000000e+00, ptr %6, align 8
  br label %72

72:                                               ; preds = %71, %70
  br label %73

73:                                               ; preds = %72, %47
  br label %74

74:                                               ; preds = %73, %34
  br label %75

75:                                               ; preds = %74, %16
  %76 = load ptr, ptr %4, align 8
  %77 = getelementptr inbounds nuw %struct.VariableStatData, ptr %76, i32 0, i32 7
  %78 = load i8, ptr %77, align 4, !range !4, !noundef !5
  %79 = trunc i8 %78 to i1
  br i1 %79, label %80, label %84

80:                                               ; preds = %75
  %81 = load double, ptr %7, align 8
  %82 = fsub double 1.000000e+00, %81
  %83 = fmul double -1.000000e+00, %82
  store double %83, ptr %6, align 8
  br label %84

84:                                               ; preds = %80, %75
  %85 = load double, ptr %6, align 8
  %86 = fcmp ogt double %85, 0.000000e+00
  br i1 %86, label %87, label %90

87:                                               ; preds = %84
  %88 = load double, ptr %6, align 8
  %89 = call double @clamp_row_est(double noundef %88)
  store double %89, ptr %3, align 8
  store i32 1, ptr %10, align 4
  br label %124

90:                                               ; preds = %84
  %91 = load ptr, ptr %4, align 8
  %92 = getelementptr inbounds nuw %struct.VariableStatData, ptr %91, i32 0, i32 1
  %93 = load ptr, ptr %92, align 8
  %94 = icmp eq ptr %93, null
  br i1 %94, label %95, label %97

95:                                               ; preds = %90
  %96 = load ptr, ptr %5, align 8
  store i8 1, ptr %96, align 1
  store double 2.000000e+02, ptr %3, align 8
  store i32 1, ptr %10, align 4
  br label %124

97:                                               ; preds = %90
  %98 = load ptr, ptr %4, align 8
  %99 = getelementptr inbounds nuw %struct.VariableStatData, ptr %98, i32 0, i32 1
  %100 = load ptr, ptr %99, align 8
  %101 = getelementptr inbounds nuw %struct.RelOptInfo, ptr %100, i32 0, i32 31
  %102 = load double, ptr %101, align 8
  store double %102, ptr %8, align 8
  %103 = load double, ptr %8, align 8
  %104 = fcmp ole double %103, 0.000000e+00
  br i1 %104, label %105, label %107

105:                                              ; preds = %97
  %106 = load ptr, ptr %5, align 8
  store i8 1, ptr %106, align 1
  store double 2.000000e+02, ptr %3, align 8
  store i32 1, ptr %10, align 4
  br label %124

107:                                              ; preds = %97
  %108 = load double, ptr %6, align 8
  %109 = fcmp olt double %108, 0.000000e+00
  br i1 %109, label %110, label %116

110:                                              ; preds = %107
  %111 = load double, ptr %6, align 8
  %112 = fneg double %111
  %113 = load double, ptr %8, align 8
  %114 = fmul double %112, %113
  %115 = call double @clamp_row_est(double noundef %114)
  store double %115, ptr %3, align 8
  store i32 1, ptr %10, align 4
  br label %124

116:                                              ; preds = %107
  %117 = load double, ptr %8, align 8
  %118 = fcmp olt double %117, 2.000000e+02
  br i1 %118, label %119, label %122

119:                                              ; preds = %116
  %120 = load double, ptr %8, align 8
  %121 = call double @clamp_row_est(double noundef %120)
  store double %121, ptr %3, align 8
  store i32 1, ptr %10, align 4
  br label %124

122:                                              ; preds = %116
  %123 = load ptr, ptr %5, align 8
  store i8 1, ptr %123, align 1
  store double 2.000000e+02, ptr %3, align 8
  store i32 1, ptr %10, align 4
  br label %124

124:                                              ; preds = %122, %119, %110, %105, %95, %87
  call void @llvm.lifetime.end.p0(i64 8, ptr %8) #10
  call void @llvm.lifetime.end.p0(i64 8, ptr %7) #10
  call void @llvm.lifetime.end.p0(i64 8, ptr %6) #10
  %125 = load double, ptr %3, align 8
  ret double %125
}