; Function Attrs: nounwind uwtable
define dso_local double @get_variable_numdistinct(ptr noundef readonly captures(none) %0, ptr noundef writeonly captures(none) initializes((0, 1)) %1) local_unnamed_addr #0 {
  store i8 0, ptr %1, align 1
  %3 = getelementptr inbounds nuw i8, ptr %0, i64 16
  %4 = load ptr, ptr %3, align 8
  %.not = icmp eq ptr %4, null
  br i1 %.not, label %17, label %5

5:                                                ; preds = %2
  %6 = getelementptr i8, ptr %4, i64 16
  %.val = load ptr, ptr %6, align 8
  %7 = getelementptr inbounds nuw i8, ptr %.val, i64 22
  %8 = load i8, ptr %7, align 2
  %9 = zext i8 %8 to i64
  %10 = getelementptr inbounds nuw i8, ptr %.val, i64 %9
  %11 = getelementptr inbounds nuw i8, ptr %10, i64 16
  %12 = load float, ptr %11, align 4
  %13 = fpext float %12 to double
  %14 = getelementptr inbounds nuw i8, ptr %10, i64 8
  %15 = load float, ptr %14, align 4
  %16 = fpext float %15 to double
  br label %38

17:                                               ; preds = %2
  %18 = getelementptr inbounds nuw i8, ptr %0, i64 32
  %19 = load i32, ptr %18, align 8
  %20 = icmp eq i32 %19, 16
  br i1 %20, label %38, label %21

21:                                               ; preds = %17
  %22 = getelementptr inbounds nuw i8, ptr %0, i64 8
  %23 = load ptr, ptr %22, align 8
  %.not34 = icmp eq ptr %23, null
  br i1 %.not34, label %28, label %24

24:                                               ; preds = %21
  %25 = getelementptr inbounds nuw i8, ptr %23, i64 120
  %26 = load i32, ptr %25, align 8
  %27 = icmp eq i32 %26, 5
  br i1 %27, label %38, label %28

28:                                               ; preds = %24, %21
  %29 = load ptr, ptr %0, align 8
  %.not35 = icmp eq ptr %29, null
  br i1 %.not35, label %38, label %30

30:                                               ; preds = %28
  %31 = load i32, ptr %29, align 4
  %32 = icmp eq i32 %31, 6
  br i1 %32, label %33, label %38

33:                                               ; preds = %30
  %34 = getelementptr inbounds nuw i8, ptr %29, i64 8
  %35 = load i16, ptr %34, align 8
  switch i16 %35, label %37 [
    i16 -1, label %38
    i16 -6, label %36
  ]

36:                                               ; preds = %33
  br label %38

37:                                               ; preds = %33
  br label %38

38:                                               ; preds = %28, %30, %33, %24, %17, %37, %36, %5
  %.028 = phi double [ %16, %5 ], [ 0.000000e+00, %37 ], [ 0.000000e+00, %36 ], [ 0.000000e+00, %17 ], [ 0.000000e+00, %24 ], [ 0.000000e+00, %33 ], [ 0.000000e+00, %30 ], [ 0.000000e+00, %28 ]
  %.027 = phi double [ %13, %5 ], [ 0.000000e+00, %37 ], [ 1.000000e+00, %36 ], [ 2.000000e+00, %17 ], [ -1.000000e+00, %24 ], [ -1.000000e+00, %33 ], [ 0.000000e+00, %30 ], [ 0.000000e+00, %28 ]
  %39 = getelementptr inbounds nuw i8, ptr %0, i64 44
  %40 = load i8, ptr %39, align 4, !range !4, !noundef !5
  %41 = trunc nuw i8 %40 to i1
  %42 = fsub double 1.000000e+00, %.028
  %43 = fneg double %42
  %.1 = select i1 %41, double %43, double %.027
  %44 = fcmp ogt double %.1, 0.000000e+00
  br i1 %44, label %45, label %47

45:                                               ; preds = %38
  %46 = tail call double @clamp_row_est(double noundef %.1) #12
  br label %68

47:                                               ; preds = %38
  %48 = getelementptr inbounds nuw i8, ptr %0, i64 8
  %49 = load ptr, ptr %48, align 8
  %50 = icmp eq ptr %49, null
  br i1 %50, label %51, label %52

51:                                               ; preds = %47
  store i8 1, ptr %1, align 1
  br label %68

52:                                               ; preds = %47
  %53 = getelementptr inbounds nuw i8, ptr %49, i64 200
  %54 = load double, ptr %53, align 8
  %55 = fcmp ugt double %54, 0.000000e+00
  br i1 %55, label %57, label %56

56:                                               ; preds = %52
  store i8 1, ptr %1, align 1
  br label %68

57:                                               ; preds = %52
  %58 = fcmp olt double %.1, 0.000000e+00
  br i1 %58, label %59, label %63

59:                                               ; preds = %57
  %60 = fneg double %.1
  %61 = fmul double %54, %60
  %62 = tail call double @clamp_row_est(double noundef %61) #12
  br label %68

63:                                               ; preds = %57
  %64 = fcmp olt double %54, 2.000000e+02
  br i1 %64, label %65, label %67

65:                                               ; preds = %63
  %66 = tail call double @clamp_row_est(double noundef %54) #12
  br label %68

67:                                               ; preds = %63
  store i8 1, ptr %1, align 1
  br label %68

68:                                               ; preds = %67, %65, %59, %56, %51, %45
  %.0 = phi double [ %46, %45 ], [ 2.000000e+02, %51 ], [ 2.000000e+02, %56 ], [ %62, %59 ], [ %66, %65 ], [ 2.000000e+02, %67 ]
  ret double %.0
}